(dp1
S'squeal_package'
p2
ccopy_reg
_reconstructor
p3
(ctwisted.plugin
CachedDropin
p4
c__builtin__
object
p5
NtRp6
(dp7
S'moduleName'
p8
S'nevow.plugins.squeal_package'
p9
sS'description'
p10
NsS'plugins'
p11
(lp12
g3
(ctwisted.plugin
CachedPlugin
p13
g5
NtRp14
(dp15
S'provided'
p16
(lp17
ctwisted.plugin
IPlugin
p18
acnevow.inevow
IJavascriptPackage
p19
asS'dropin'
p20
g6
sS'name'
p21
S'squealJS'
p22
sg10
S'\n    A Javascript package.\n\n    @type mapping: C{dict}\n    @ivar mapping: Mapping between JS module names and C{str} representing\n    filesystem paths containing their implementations.\n    '
p23
sbasbsS'nevow_package'
p24
g3
(g4
g5
NtRp25
(dp26
g8
S'nevow.plugins.nevow_package'
p27
sg10
Nsg11
(lp28
g3
(g13
g5
NtRp29
(dp30
g16
(lp31
g18
acnevow.inevow
ICSSPackage
p32
asg20
g25
sg21
S'nevowCSSPkg'
p33
sg10
S'\n    Like L{AutoJSPackage}, but for CSS packages.  Modules within this package\n    can be referenced by L{LivePage.cssModule} or L{LiveElement.cssModule}.\n    '
p34
sbag3
(g13
g5
NtRp35
(dp36
g16
(lp37
g18
ag19
asg20
g25
sg21
S'nevowPkg'
p38
sg10
S'\n    A L{inevow.IJavascriptPackage} implementation that scans an on-disk\n    hierarchy locating modules and packages.\n\n    @type baseDir: C{str}\n    @ivar baseDir: A path to the root of a JavaScript packages/modules\n    filesystem hierarchy.\n    '
p39
sbasbsS'formlet_package'
p40
g3
(g4
g5
NtRp41
(dp42
g8
S'nevow.plugins.formlet_package'
p43
sg10
Nsg11
(lp44
g3
(g13
g5
NtRp45
(dp46
g16
(lp47
g18
ag19
asg20
g41
sg21
S'formletJS'
p48
sg10
g23
sbasbs.